target datalayout = "e-m:e-p270:32:32-p271:32:32-p272:64:64-i64:64-i128:128-f80:128-n8:16:32:64-S128"
target triple = "x86_64-pc-linux-gnu"

@sq_quote_buf_pretty.ok_punct = internal constant [11 x i8] c"+,-./:=@_^\00", align 1
@.str.2 = private unnamed_addr constant [3 x i8] c"''\00", align 1
@sane_ctype = external constant [256 x i8], align 16

; Function Attrs: inlinehint nounwind uwtable
define internal void @strbuf_addstr(ptr noundef %0, ptr noundef %1) #3 {
  %3 = alloca ptr, align 8
  %4 = alloca ptr, align 8
  store ptr %0, ptr %3, align 8, !tbaa !4
  store ptr %1, ptr %4, align 8, !tbaa !9
  %5 = load ptr, ptr %3, align 8, !tbaa !4
  %6 = load ptr, ptr %4, align 8, !tbaa !9
  %7 = load ptr, ptr %4, align 8, !tbaa !9
  %8 = call i64 @strlen(ptr noundef %7) #10
  call void @strbuf_add(ptr noundef %5, ptr noundef %6, i64 noundef %8)
  ret void
}

; Function Attrs: nounwind uwtable
define dso_local void @sq_quote_buf_pretty(ptr noundef %0, ptr noundef %1) #0 {
  %3 = alloca ptr, align 8
  %4 = alloca ptr, align 8
  %5 = alloca ptr, align 8
  %6 = alloca i32, align 4
  store ptr %0, ptr %3, align 8, !tbaa !4
  store ptr %1, ptr %4, align 8, !tbaa !9
  call void @llvm.lifetime.start.p0(i64 8, ptr %5) #9
  %7 = load ptr, ptr %4, align 8, !tbaa !9
  %8 = load i8, ptr %7, align 1, !tbaa !14
  %9 = icmp ne i8 %8, 0
  br i1 %9, label %12, label %10

10:                                               ; preds = %2
  %11 = load ptr, ptr %3, align 8, !tbaa !4
  call void @strbuf_addstr(ptr noundef %11, ptr noundef @.str.2)
  store i32 1, ptr %6, align 4
  br label %43

12:                                               ; preds = %2
  %13 = load ptr, ptr %4, align 8, !tbaa !9
  store ptr %13, ptr %5, align 8, !tbaa !9
  br label %14

14:                                               ; preds = %37, %12
  %15 = load ptr, ptr %5, align 8, !tbaa !9
  %16 = load i8, ptr %15, align 1, !tbaa !14
  %17 = icmp ne i8 %16, 0
  br i1 %17, label %18, label %40

18:                                               ; preds = %14
  %19 = load ptr, ptr %5, align 8, !tbaa !9
  %20 = load i8, ptr %19, align 1, !tbaa !14
  %21 = zext i8 %20 to i64
  %22 = getelementptr inbounds nuw [256 x i8], ptr @sane_ctype, i64 0, i64 %21
  %23 = load i8, ptr %22, align 1, !tbaa !14
  %24 = zext i8 %23 to i32
  %25 = and i32 %24, 6
  %26 = icmp ne i32 %25, 0
  br i1 %26, label %36, label %27

27:                                               ; preds = %18
  %28 = load ptr, ptr %5, align 8, !tbaa !9
  %29 = load i8, ptr %28, align 1, !tbaa !14
  %30 = sext i8 %29 to i32
  %31 = call ptr @strchr(ptr noundef @sq_quote_buf_pretty.ok_punct, i32 noundef %30) #10
  %32 = icmp ne ptr %31, null
  br i1 %32, label %36, label %33

33:                                               ; preds = %27
  %34 = load ptr, ptr %3, align 8, !tbaa !4
  %35 = load ptr, ptr %4, align 8, !tbaa !9
  call void @sq_quote_buf(ptr noundef %34, ptr noundef %35)
  store i32 1, ptr %6, align 4
  br label %43

36:                                               ; preds = %27, %18
  br label %37

37:                                               ; preds = %36
  %38 = load ptr, ptr %5, align 8, !tbaa !9
  %39 = getelementptr inbounds nuw i8, ptr %38, i32 1
  store ptr %39, ptr %5, align 8, !tbaa !9
  br label %14, !llvm.loop !22

40:                                               ; preds = %14
  %41 = load ptr, ptr %3, align 8, !tbaa !4
  %42 = load ptr, ptr %4, align 8, !tbaa !9
  call void @strbuf_addstr(ptr noundef %41, ptr noundef %42)
  store i32 0, ptr %6, align 4
  br label %43

43:                                               ; preds = %40, %33, %10
  call void @llvm.lifetime.end.p0(i64 8, ptr %5) #9
  %44 = load i32, ptr %6, align 4
  switch i32 %44, label %46 [
    i32 0, label %45
    i32 1, label %45
  ]

45:                                               ; preds = %43, %43
  ret void

46:                                               ; preds = %43
  unreachable
}