; Function Attrs: nounwind uwtable
define dso_local void @sq_quote_buf_pretty(ptr noundef %0, ptr noundef %1) local_unnamed_addr #0 {
  %3 = load i8, ptr %1, align 1, !tbaa !13
  %.not = icmp eq i8 %3, 0
  br i1 %.not, label %4, label %.preheader

4:                                                ; preds = %2
  tail call void @strbuf_add(ptr noundef %0, ptr noundef nonnull @.str.2, i64 noundef 2) #12
  br label %17

.preheader:                                       ; preds = %2, %13
  %.015 = phi ptr [ %14, %13 ], [ %1, %2 ]
  %5 = phi i8 [ %.pr, %13 ], [ %3, %2 ]
  %6 = zext i8 %5 to i64
  %7 = getelementptr inbounds nuw [256 x i8], ptr @sane_ctype, i64 0, i64 %6
  %8 = load i8, ptr %7, align 1, !tbaa !13
  %9 = and i8 %8, 6
  %.not13 = icmp eq i8 %9, 0
  br i1 %.not13, label %10, label %13

10:                                               ; preds = %.preheader
  %11 = sext i8 %5 to i32
  %memchr = tail call ptr @memchr(ptr noundef nonnull dereferenceable(1) @sq_quote_buf_pretty.ok_punct, i32 %11, i64 11)
  %.not14 = icmp eq ptr %memchr, null
  br i1 %.not14, label %12, label %13

12:                                               ; preds = %10
  tail call void @sq_quote_buf(ptr noundef %0, ptr noundef nonnull %1)
  br label %17

13:                                               ; preds = %.preheader, %10
  %14 = getelementptr inbounds nuw i8, ptr %.015, i64 1
  %.pr = load i8, ptr %14, align 1, !tbaa !13
  %.not12 = icmp eq i8 %.pr, 0
  br i1 %.not12, label %15, label %.preheader, !llvm.loop !16

15:                                               ; preds = %13
  %16 = tail call i64 @strlen(ptr noundef nonnull dereferenceable(1) %1) #13
  tail call void @strbuf_add(ptr noundef %0, ptr noundef nonnull %1, i64 noundef %16) #12
  br label %17

17:                                               ; preds = %15, %12, %4
  ret void
}